(dp0
S"'"
p1
(lp2
NaS'IH0'
p3
aS'IH1'
p4
aS'IH2'
p5
asS'a'
p6
(lp7
NaS'AA0'
p8
aS'AA1'
p9
aS'AA2'
p10
aS'AE0'
p11
aS'AE1'
p12
aS'AE2'
p13
aS'AH0'
p14
aS'AH1'
p15
aS'AH2'
p16
aS'AO0'
p17
aS'AO1'
p18
aS'AO2'
p19
aS'AW0'
p20
aS'AW1'
p21
aS'AW2'
p22
aS'AY0'
p23
aS'AY1'
p24
aS'AY2'
p25
aS'EH0'
p26
aS'EH1'
p27
aS'EH2'
p28
aS'ER0'
p29
aS'ER1'
p30
aS'ER2'
p31
aS'EY0'
p32
aS'EY1'
p33
aS'EY2'
p34
aS'IH0'
p35
aS'IH1'
p36
aS'IH2'
p37
aS'IY0'
p38
aS'IY1'
p39
aS'IY2'
p40
aS'OW0'
p41
aS'OW1'
p42
aS'OW2'
p43
aS'OY0'
p44
aS'OY1'
p45
aS'OY2'
p46
aS'UH0'
p47
aS'UH1'
p48
aS'UH2'
p49
aS'UW0'
p50
aS'UW1'
p51
aS'UW2'
p52
asS'c'
p53
(lp54
NaS'CH'
p55
aS'K'
p56
aS'S'
p57
aS'SH'
p58
aS'T'
p59
asS'b'
p60
(lp61
NaS'B'
p62
aS'P'
p63
asS'e'
p64
(lp65
NaS'AA0'
p66
aS'AA1'
p67
aS'AA2'
p68
aS'AE0'
p69
aS'AE1'
p70
aS'AE2'
p71
aS'AH0'
p72
aS'AH1'
p73
aS'AH2'
p74
aS'AO0'
p75
aS'AO1'
p76
aS'AO2'
p77
aS'AW0'
p78
aS'AW1'
p79
aS'AW2'
p80
aS'AY0'
p81
aS'AY1'
p82
aS'AY2'
p83
aS'EH0'
p84
aS'EH1'
p85
aS'EH2'
p86
aS'ER0'
p87
aS'ER1'
p88
aS'ER2'
p89
aS'EY0'
p90
aS'EY1'
p91
aS'EY2'
p92
aS'IH0'
p93
aS'IH1'
p94
aS'IH2'
p95
aS'IY0'
p96
aS'IY1'
p97
aS'IY2'
p98
aS'OW0'
p99
aS'OW1'
p100
aS'OW2'
p101
aS'OY0'
p102
aS'OY1'
p103
aS'OY2'
p104
aS'UH0'
p105
aS'UH1'
p106
aS'UH2'
p107
aS'UW0'
p108
aS'UW1'
p109
aS'UW2'
p110
asS'd'
p111
(lp112
NaS'D'
p113
aS'JH'
p114
aS'T'
p115
asS'g'
p116
(lp117
NaS'F'
p118
aS'G'
p119
aS'JH'
p120
aS'K'
p121
aS'ZH'
p122
asS'f'
p123
(lp124
NaS'F'
p125
asS'i'
p126
(lp127
NaS'AA0'
p128
aS'AA1'
p129
aS'AA2'
p130
aS'AE0'
p131
aS'AE1'
p132
aS'AE2'
p133
aS'AH0'
p134
aS'AH1'
p135
aS'AH2'
p136
aS'AO0'
p137
aS'AO1'
p138
aS'AO2'
p139
aS'AW0'
p140
aS'AW1'
p141
aS'AW2'
p142
aS'AY0'
p143
aS'AY1'
p144
aS'AY2'
p145
aS'EH0'
p146
aS'EH1'
p147
aS'EH2'
p148
aS'ER0'
p149
aS'ER1'
p150
aS'ER2'
p151
aS'EY0'
p152
aS'EY1'
p153
aS'EY2'
p154
aS'IH0'
p155
aS'IH1'
p156
aS'IH2'
p157
aS'IY0'
p158
aS'IY1'
p159
aS'IY2'
p160
aS'OW0'
p161
aS'OW1'
p162
aS'OW2'
p163
aS'OY0'
p164
aS'OY1'
p165
aS'OY2'
p166
aS'UH0'
p167
aS'UH1'
p168
aS'UH2'
p169
aS'UW0'
p170
aS'UW1'
p171
aS'UW2'
p172
aS'Y'
p173
asS'h'
p174
(lp175
NaS'HH'
p176
asS'k'
p177
(lp178
NaS'K'
p179
asS'j'
p180
(lp181
NaS'HH'
p182
aS'JH'
p183
aS'Y'
p184
aS'ZH'
p185
asS'm'
p186
(lp187
NaS'M'
p188
asS'l'
p189
(lp190
NaS'L'
p191
aS'Y'
p192
asS'o'
p193
(lp194
NaS'AA0'
p195
aS'AA1'
p196
aS'AA2'
p197
aS'AE0'
p198
aS'AE1'
p199
aS'AE2'
p200
aS'AH0'
p201
aS'AH1'
p202
aS'AH2'
p203
aS'AO0'
p204
aS'AO1'
p205
aS'AO2'
p206
aS'AW0'
p207
aS'AW1'
p208
aS'AW2'
p209
aS'AY0'
p210
aS'AY1'
p211
aS'AY2'
p212
aS'EH0'
p213
aS'EH1'
p214
aS'EH2'
p215
aS'ER0'
p216
aS'ER1'
p217
aS'ER2'
p218
aS'EY0'
p219
aS'EY1'
p220
aS'EY2'
p221
aS'IH0'
p222
aS'IH1'
p223
aS'IH2'
p224
aS'IY0'
p225
aS'IY1'
p226
aS'IY2'
p227
aS'OW0'
p228
aS'OW1'
p229
aS'OW2'
p230
aS'OY0'
p231
aS'OY1'
p232
aS'OY2'
p233
aS'UH0'
p234
aS'UH1'
p235
aS'UH2'
p236
aS'UW0'
p237
aS'UW1'
p238
aS'UW2'
p239
aS'W'
p240
asS'n'
p241
(lp242
NaS'N'
p243
aS'NG'
p244
ag173
asS'q'
p245
(lp246
NaS'K'
p247
asS'p'
p248
(lp249
NaS'F'
p250
aS'P'
p251
asS's'
p252
(lp253
NaS'CH'
p254
aS'S'
p255
aS'SH'
p256
aS'Z'
p257
aS'ZH'
p258
asS'r'
p259
(lp260
NaS'ER0'
p261
aS'ER1'
p262
aS'ER2'
p263
aS'R'
p264
asS'u'
p265
(lp266
NaS'AA0'
p267
aS'AA1'
p268
aS'AA2'
p269
aS'AE0'
p270
aS'AE1'
p271
aS'AE2'
p272
aS'AH0'
p273
aS'AH1'
p274
aS'AH2'
p275
aS'AO0'
p276
aS'AO1'
p277
aS'AO2'
p278
aS'AW0'
p279
aS'AW1'
p280
aS'AW2'
p281
aS'AY0'
p282
aS'AY1'
p283
aS'AY2'
p284
aS'EH0'
p285
aS'EH1'
p286
aS'EH2'
p287
aS'ER0'
p288
aS'ER1'
p289
aS'ER2'
p290
aS'EY0'
p291
aS'EY1'
p292
aS'EY2'
p293
aS'IH0'
p294
aS'IH1'
p295
aS'IH2'
p296
aS'IY0'
p297
aS'IY1'
p298
aS'IY2'
p299
aS'OW0'
p300
aS'OW1'
p301
aS'OW2'
p302
aS'OY0'
p303
aS'OY1'
p304
aS'OY2'
p305
aS'UH0'
p306
aS'UH1'
p307
aS'UH2'
p308
aS'UW0'
p309
aS'UW1'
p310
aS'UW2'
p311
ag240
asS't'
p312
(lp313
NaS'CH'
p314
aS'D'
p315
aS'DH'
p316
aS'S'
p317
aS'SH'
p318
aS'T'
p319
aS'TH'
p320
aS'ZH'
p321
asS'w'
p322
(lp323
NaS'F'
p324
aS'V'
p325
aS'W'
p326
aS'UW0'
p327
aS'UW1'
p328
aS'UW2'
p329
asS'v'
p330
(lp331
NaS'F'
p332
aS'V'
p333
asS'y'
p334
(lp335
NaS'AA0'
p336
aS'AA1'
p337
aS'AA2'
p338
aS'AE0'
p339
aS'AE1'
p340
aS'AE2'
p341
aS'AH0'
p342
aS'AH1'
p343
aS'AH2'
p344
aS'AO0'
p345
aS'AO1'
p346
aS'AO2'
p347
aS'AW0'
p348
aS'AW1'
p349
aS'AW2'
p350
aS'AY0'
p351
aS'AY1'
p352
aS'AY2'
p353
aS'EH0'
p354
aS'EH1'
p355
aS'EH2'
p356
aS'ER0'
p357
aS'ER1'
p358
aS'ER2'
p359
aS'EY0'
p360
aS'EY1'
p361
aS'EY2'
p362
aS'IH0'
p363
aS'IH1'
p364
aS'IH2'
p365
aS'IY0'
p366
aS'IY1'
p367
aS'IY2'
p368
aS'OW0'
p369
aS'OW1'
p370
aS'OW2'
p371
aS'OY0'
p372
aS'OY1'
p373
aS'OY2'
p374
aS'UH0'
p375
aS'UH1'
p376
aS'UH2'
p377
aS'UW0'
p378
aS'UW1'
p379
aS'UW2'
p380
ag173
asS'x'
p381
(lp382
NaS'K'
p383
aS'G'
p384
aS'NG'
p385
aS'S'
p386
aS'SH'
p387
aS'Z'
p388
aS'ZH'
p389
asN(lp390
NaS''
p391
aS'AH0'
p392
aS'AH1'
p393
aS'AH2'
p394
aS'IH0'
p395
aS'IH1'
p396
aS'IH2'
p397
aS'Y'
p398
aS'W'
p399
aS'S'
p400
aS'SH'
p401
aS'Z'
p402
aS'ZH'
p403
asS'z'
p404
(lp405
NaS'S'
p406
ag59
aS'Z'
p407
aS'ZH'
p408
as.