(lp0
(lp1
(Va
p2
VAE
p3
tp4
a(Vb
p5
VB
p6
tp7
a(g2
VAH
p8
tp9
a(Vs
p10
VS
p11
tp12
a(Vc
p13
VK
p14
tp15
a(g2
VAH
p16
tp17
a(Vl
p18
VL
p19
tp20
aa(lp21
(g2
VAE
p22
tp23
a(g5
g6
tp24
a(Vd
p25
VD
p26
tp27
a(Vi
p28
VAH
p29
tp30
a(g13
g14
tp31
a(g2
VEY
p32
tp33
a(Vt
p34
VT
p35
tp36
a(Ve
p37
Ntp38
aa(lp39
(g2
VAE
p40
tp41
a(g13
Ntp42
a(Vk
p43
g14
tp44
aa(lp45
(g2
VAE
p46
tp47
a(Vm
p48
VM
p49
tp50
a(Vp
p51
VP
p52
tp53
a(NVY
p54
tp55
a(Vu
p56
VAH
p57
tp58
a(g34
g35
tp59
a(g2
VEY
p60
tp61
a(g34
g35
tp62
a(g37
VIH
p63
tp64
a(g25
g26
tp65
aa(lp66
(g2
VAE
p67
tp68
a(Vn
p69
VNG
p70
tp71
a(g13
g14
tp72
a(Vh
p73
Ntp74
a(Vo
p75
Ntp76
a(Vr
p77
VER
p78
tp79
a(g10
VZ
p80
tp81
aa(lp82
(g5
g6
tp83
a(g2
VAE
p84
tp85
a(g10
VSH
p86
tp87
a(g73
Ntp88
a(g37
VIH
p89
tp90
a(g10
g80
tp91
aa(lp92
(g5
g6
tp93
a(g37
VIH
p94
tp95
a(g13
g14
tp96
a(g75
VAH
p97
tp98
a(g48
g49
tp99
a(g37
Ntp100
aa(lp101
(g5
g6
tp102
a(g37
VIH
p103
tp104
a(g73
VHH
p105
tp106
a(g37
Ntp107
a(g2
VEH
p108
tp109
a(g25
g26
tp110
a(g28
VIH
p111
tp112
a(g69
VNG
p113
tp114
a(Vg
p115
Ntp116
a(g10
g80
tp117
aa(lp118
(g5
g6
tp119
a(g37
VEH
p120
tp121
a(g18
g19
tp122
a(g48
g49
tp123
a(g75
VAA
p124
tp125
a(g69
VN
p126
tp127
a(g34
g35
tp128
aa(lp129
(g5
g6
tp130
a(g28
VIH
p131
tp132
a(g18
g19
tp133
a(g34
g35
tp134
a(g48
g49
tp135
a(g75
VAO
p136
tp137
a(g77
VR
p138
tp139
a(g37
Ntp140
aa(lp141
(g5
g6
tp142
a(g75
VOY
p143
tp144
a(g28
Ntp145
a(g18
g19
tp146
a(g37
Ntp147
a(g77
VER
p148
tp149
a(g10
g80
tp150
aa(lp151
(g5
g6
tp152
a(g77
g138
tp153
a(g28
VIH
p154
tp155
a(g34
g35
tp156
a(g75
VAH
p157
tp158
a(g69
g126
tp159
aa(lp160
(g5
g6
tp161
a(g77
g138
tp162
a(g75
VAW
p163
tp164
a(Vw
p165
Ntp166
a(g69
g126
tp167
a(g10
g11
tp168
a(g34
g35
tp169
a(g37
Ntp170
a(g28
VIY
p171
tp172
a(g69
g126
tp173
aa(lp174
(g13
g14
tp175
a(g2
VAE
p176
tp177
a(g69
Ntp178
a(g69
g126
tp179
a(g28
VAH
p180
tp181
a(g5
g6
tp182
a(g2
VAH
p183
tp184
a(g18
g19
tp185
a(g28
VAY
p186
tp187
a(Vz
p188
g80
tp189
a(g37
Ntp190
aa(lp191
(g13
g14
tp192
a(g2
g176
tp193
a(g69
g126
tp194
a(g69
Ntp195
a(g28
g180
tp196
a(g5
g6
tp197
a(g2
g183
tp198
a(g18
g19
tp199
a(g28
g186
tp200
a(g188
g80
tp201
a(g37
Ntp202
aa(lp203
(g13
g14
tp204
a(g2
VAE
p205
tp206
a(g69
g126
tp207
a(Vv
p208
VV
p209
tp210
a(g2
VAH
p211
tp212
a(g10
g11
tp213
a(g37
VIH
p214
tp215
a(g10
g80
tp216
aa(lp217
(g13
g14
tp218
a(g2
VAE
p219
tp220
a(g34
VTH
p221
tp222
a(g73
Ntp223
a(g37
VAH
p224
tp225
a(g18
Ntp226
a(g18
g19
tp227
aa(lp228
(g13
g14
tp229
a(g2
g219
tp230
a(g34
g221
tp231
a(g73
Ntp232
a(g37
g224
tp233
a(g18
g19
tp234
a(g18
Ntp235
aa(lp236
(g13
VCH
p237
tp238
a(g73
Ntp239
a(g37
VEH
p240
tp241
a(g13
Ntp242
a(g13
g14
tp243
a(g73
Ntp244
a(g28
VIY
p245
tp246
aa(lp247
(g13
g237
tp248
a(g73
Ntp249
a(g37
g240
tp250
a(g13
g14
tp251
a(g13
Ntp252
a(g73
Ntp253
a(g28
g245
tp254
aa(lp255
(g13
g14
tp256
a(g75
VAA
p257
tp258
a(g13
Ntp259
a(g43
g14
tp260
a(Vf
p261
VF
p262
tp263
a(g28
VIY
p264
tp265
a(g37
Ntp266
a(g18
g19
tp267
a(g25
g26
tp268
aa(lp269
(g13
g14
tp270
a(g75
VAH
p271
tp272
a(g48
Ntp273
a(g48
g49
tp274
a(g28
VIH
p275
tp276
a(g34
Ntp277
a(g34
g35
tp278
a(g37
Ntp279
a(g37
VIY
p280
tp281
a(g10
g80
tp282
a(V'
p283
Ntp284
aa(lp285
(g13
g14
tp286
a(g75
g271
tp287
a(g48
g49
tp288
a(g48
Ntp289
a(g28
g275
tp290
a(g34
Ntp291
a(g34
g35
tp292
a(g37
Ntp293
a(g37
g280
tp294
a(g10
g80
tp295
a(g283
Ntp296
aa(lp297
(g13
g14
tp298
a(g75
g271
tp299
a(g48
Ntp300
a(g48
g49
tp301
a(g28
g275
tp302
a(g34
g35
tp303
a(g34
Ntp304
a(g37
Ntp305
a(g37
g280
tp306
a(g10
g80
tp307
a(g283
Ntp308
aa(lp309
(g13
g14
tp310
a(g75
g271
tp311
a(g48
g49
tp312
a(g48
Ntp313
a(g28
g275
tp314
a(g34
g35
tp315
a(g34
Ntp316
a(g37
Ntp317
a(g37
g280
tp318
a(g10
g80
tp319
a(g283
Ntp320
aa(lp321
(g13
g14
tp322
a(g75
g271
tp323
a(g48
Ntp324
a(g48
g49
tp325
a(g28
g275
tp326
a(g34
Ntp327
a(g34
g35
tp328
a(g37
g280
tp329
a(g37
Ntp330
a(g10
g80
tp331
a(g283
Ntp332
aa(lp333
(g13
g14
tp334
a(g75
g271
tp335
a(g48
g49
tp336
a(g48
Ntp337
a(g28
g275
tp338
a(g34
Ntp339
a(g34
g35
tp340
a(g37
g280
tp341
a(g37
Ntp342
a(g10
g80
tp343
a(g283
Ntp344
aa(lp345
(g13
g14
tp346
a(g75
g271
tp347
a(g48
Ntp348
a(g48
g49
tp349
a(g28
g275
tp350
a(g34
g35
tp351
a(g34
Ntp352
a(g37
g280
tp353
a(g37
Ntp354
a(g10
g80
tp355
a(g283
Ntp356
aa(lp357
(g13
g14
tp358
a(g75
g271
tp359
a(g48
g49
tp360
a(g48
Ntp361
a(g28
g275
tp362
a(g34
g35
tp363
a(g34
Ntp364
a(g37
g280
tp365
a(g37
Ntp366
a(g10
g80
tp367
a(g283
Ntp368
aa(lp369
(g13
g14
tp370
a(g75
VAH
p371
tp372
a(g48
g49
tp373
a(Ng54
tp374
a(g48
Ntp375
a(g56
VUW
p376
tp377
a(g69
g126
tp378
a(g28
VAH
p379
tp380
a(g34
g35
tp381
a(g28
VIY
p382
tp383
a(g37
Ntp384
a(g10
g80
tp385
aa(lp386
(g13
g14
tp387
a(g75
g371
tp388
a(g48
Ntp389
a(g48
g49
tp390
a(Ng54
tp391
a(g56
g376
tp392
a(g69
g126
tp393
a(g28
g379
tp394
a(g34
g35
tp395
a(g28
g382
tp396
a(g37
Ntp397
a(g10
g80
tp398
aa(lp399
(g13
g14
tp400
a(g75
g371
tp401
a(g48
g49
tp402
a(g48
Ntp403
a(Ng54
tp404
a(g56
g376
tp405
a(g69
g126
tp406
a(g28
g379
tp407
a(g34
g35
tp408
a(g28
g382
tp409
a(g37
Ntp410
a(g10
g80
tp411
aa(lp412
(g13
g14
tp413
a(g75
VAH
p414
tp415
a(g48
g49
tp416
a(g51
g52
tp417
a(g75
VOW
p418
tp419
a(g10
VZH
p420
tp421
a(g56
Ntp422
a(g77
VER
p423
tp424
a(g37
Ntp425
aa(lp426
(g13
g14
tp427
a(g75
VAH
p428
tp429
a(g69
g126
tp430
a(g10
g11
tp431
a(g34
g35
tp432
a(g77
g138
tp433
a(g56
VUW
p434
tp435
a(g37
Ntp436
aa(lp437
(g13
g14
tp438
a(g56
VW
p439
tp440
a(g28
VIY
p441
tp442
a(g10
g11
tp443
a(g28
VIH
p444
tp445
a(g69
g126
tp446
a(g2
Ntp447
a(g77
VER
p448
tp449
a(g34
g35
tp450
aa(lp451
(g13
g14
tp452
a(g56
VAH
p453
tp454
a(g10
VSH
p455
tp456
a(g73
Ntp457
a(g28
VIH
p458
tp459
a(g34
g35
tp460
a(g28
VIH
p461
tp462
a(g13
g14
tp463
aa(lp464
(g25
g26
tp465
a(g2
VAE
p466
tp467
a(g69
g126
tp468
a(g2
VAH
p469
tp470
a(g73
VHH
p471
tp472
a(g37
Ntp473
a(g77
VER
p474
tp475
aa(lp476
(g25
g26
tp477
a(g2
VAA
p478
tp479
a(g77
g138
tp480
a(g13
g14
tp481
a(g2
VAA
p482
tp483
a(g69
VNG
p484
tp485
a(g115
VG
p486
tp487
a(g37
VEH
p488
tp489
a(g18
g19
tp490
a(g75
VOW
p491
tp492
aa(lp493
(g25
g26
tp494
a(g37
VIY
p495
tp496
a(g5
g6
tp497
a(g2
VEY
p498
tp499
a(g34
g35
tp500
a(g75
Ntp501
a(g77
VER
p502
tp503
a(g283
Ntp504
a(g10
g80
tp505
aa(lp506
(g25
g26
tp507
a(g37
VEH
p508
tp509
a(g10
g80
tp510
a(g37
VAH
p511
tp512
a(g13
g14
tp513
a(g77
g138
tp514
a(g2
VEY
p515
tp516
a(g34
VSH
p517
tp518
a(g28
Ntp519
a(g75
VAH
p520
tp521
a(g69
g126
tp522
aa(lp523
(g25
g26
tp524
a(g37
VIH
p525
tp526
a(g10
g11
tp527
a(g75
VOW
p528
tp529
a(g34
g35
tp530
a(g75
VOW
p531
tp532
aa(lp533
(g25
g26
tp534
a(g37
VIY
p535
tp536
a(g208
g209
tp537
a(g28
VIY
p538
tp539
a(g2
VEY
p540
tp541
a(g34
g35
tp542
a(g37
Ntp543
a(g10
g11
tp544
aa(lp545
(g25
g26
tp546
a(g28
VAY
p547
tp548
a(g2
VAE
p549
tp550
a(g115
g486
tp551
a(g75
VAH
p552
tp553
a(g69
g126
tp554
a(g2
VAH
p555
tp556
a(g18
g19
tp557
a(g18
Ntp558
a(Vy
p559
VIY
p560
tp561
aa(lp562
(g25
g26
tp563
a(g28
VIH
p564
tp565
a(g10
g11
tp566
a(g51
g52
tp567
a(Ng54
tp568
a(g56
VUW
p569
tp570
a(g34
g35
tp571
a(g37
Ntp572
a(g10
g11
tp573
aa(lp574
(g25
g26
tp575
a(g28
VIH
p576
tp577
a(g10
Ntp578
a(g10
g11
tp579
a(g28
VAH
p580
tp581
a(g51
g52
tp582
a(g2
VEY
p583
tp584
a(g34
g35
tp585
a(g28
VIH
p586
tp587
a(g208
g209
tp588
a(g37
Ntp589
aa(lp590
(g25
g26
tp591
a(g28
g576
tp592
a(g10
g11
tp593
a(g10
Ntp594
a(g28
g580
tp595
a(g51
g52
tp596
a(g2
g583
tp597
a(g34
g35
tp598
a(g28
g586
tp599
a(g208
g209
tp600
a(g37
Ntp601
aa(lp602
(g25
g26
tp603
a(g28
VIH
p604
tp605
a(g10
g11
tp606
a(Ng54
tp607
a(g56
VUW
p608
tp609
a(g10
g11
tp610
a(g37
Ntp611
aa(lp612
(g25
g26
tp613
a(g75
VAO
p614
tp615
a(g37
Ntp616
a(g77
g138
tp617
a(g69
g126
tp618
a(g37
Ntp619
a(g77
VER
p620
tp621
aa(lp622
(g37
VIH
p623
tp624
a(g13
Ntp625
a(g13
g14
tp626
a(g18
g19
tp627
a(g37
VIY
p628
tp629
a(g10
g80
tp630
a(g28
VIY
p631
tp632
a(g2
VAE
p633
tp634
a(g10
g11
tp635
a(g34
g35
tp636
a(g28
VIH
p637
tp638
a(g13
g14
tp639
aa(lp640
(g37
g623
tp641
a(g13
g14
tp642
a(g13
Ntp643
a(g18
g19
tp644
a(g37
g628
tp645
a(g10
g80
tp646
a(g28
g631
tp647
a(g2
g633
tp648
a(g10
g11
tp649
a(g34
g35
tp650
a(g28
g637
tp651
a(g13
g14
tp652
aa(lp653
(g37
VIH
p654
tp655
a(g69
g126
tp656
a(g75
VOW
p657
tp658
a(g18
g19
tp659
a(g2
VAH
p660
tp661
aa(lp662
(g37
VEH
p663
tp664
a(g69
g126
tp665
a(g208
g209
tp666
a(g28
VIH
p667
tp668
a(g10
g80
tp669
a(NVIH
p670
tp671
a(g2
Ntp672
a(g115
VJH
p673
tp674
a(g37
VIH
p675
tp676
a(g10
g80
tp677
aa(lp678
(g37
g663
tp679
a(g69
g126
tp680
a(g208
g209
tp681
a(g28
g667
tp682
a(g10
g80
tp683
a(g2
Ntp684
a(Ng670
tp685
a(g115
g673
tp686
a(g37
g675
tp687
a(g10
g80
tp688
aa(lp689
(g37
VEH
p690
tp691
a(g77
Ntp692
a(g77
g138
tp693
a(g2
VAH
p694
tp695
a(g69
g126
tp696
a(g25
g26
tp697
a(g10
g80
tp698
aa(lp699
(g37
g690
tp700
a(g77
g138
tp701
a(g77
Ntp702
a(g2
g694
tp703
a(g69
g126
tp704
a(g25
g26
tp705
a(g10
g80
tp706
aa(lp707
(g37
VEH
p708
tp709
a(Vx
p710
g14
tp711
a(Ng11
tp712
a(g69
g126
tp713
a(g37
Ntp714
a(g77
VER
p715
tp716
aa(lp717
(g261
g262
tp718
a(g2
VAH
p719
tp720
a(g69
g126
tp721
a(g37
VEH
p722
tp723
a(g18
Ntp724
a(g18
g19
tp725
a(g28
VIY
p726
tp727
aa(lp728
(g261
g262
tp729
a(g18
g19
tp730
a(g2
VAE
p731
tp732
a(g115
g486
tp733
aa(lp734
(g261
g262
tp735
a(g18
g19
tp736
a(g28
VIH
p737
tp738
a(g10
Ntp739
a(g10
g11
tp740
aa(lp741
(g261
g262
tp742
a(g18
g19
tp743
a(g28
g737
tp744
a(g10
g11
tp745
a(g10
Ntp746
aa(lp747
(g261
g262
tp748
a(g75
VAA
p749
tp750
a(g710
g14
tp751
a(Ng11
tp752
a(g73
VHH
p753
tp754
a(g75
VOW
p755
tp756
a(g18
g19
tp757
a(g37
Ntp758
aa(lp759
(g261
g262
tp760
a(g77
g138
tp761
a(g75
VAO
p762
tp763
a(g10
g11
tp764
a(g34
g35
tp765
a(g28
VIH
p766
tp767
a(g69
VNG
p768
tp769
a(g115
Ntp770
aa(lp771
(g115
g486
tp772
a(g2
VEY
p773
tp774
a(g28
Ntp775
a(g69
g126
tp776
a(g37
Ntp777
a(g10
g80
tp778
a(g208
g209
tp779
a(g28
VIH
p780
tp781
a(g18
Ntp782
a(g18
g19
tp783
a(g37
Ntp784
aa(lp785
(g115
g486
tp786
a(g2
g773
tp787
a(g28
Ntp788
a(g69
g126
tp789
a(g37
Ntp790
a(g10
g80
tp791
a(g208
g209
tp792
a(g28
g780
tp793
a(g18
g19
tp794
a(g18
Ntp795
a(g37
Ntp796
aa(lp797
(g115
g486
tp798
a(g2
VEY
p799
tp800
a(g28
Ntp801
a(g69
g126
tp802
a(g10
g11
tp803
a(g13
g14
tp804
a(g75
VOW
p805
tp806
aa(lp807
(g115
VJH
p808
tp809
a(g37
Ntp810
a(g77
VER
p811
tp812
a(g48
g49
tp813
a(g28
VAH
p814
tp815
a(g13
g11
tp816
a(g28
VAY
p817
tp818
a(g25
g26
tp819
a(g37
Ntp820
aa(lp821
(g115
VJH
p822
tp823
a(g28
VIH
p824
tp825
a(g5
g6
tp826
a(g77
g138
tp827
a(g2
VAO
p828
tp829
a(g18
g19
tp830
a(g34
g35
tp831
a(g2
Ntp832
a(g77
VER
p833
tp834
aa(lp835
(g115
g486
tp836
a(g77
g138
tp837
a(g2
VAE
p838
tp839
a(g69
g126
tp840
a(g5
g6
tp841
a(g37
Ntp842
a(g77
VER
p843
tp844
a(g115
g486
tp845
aa(lp846
(g115
g486
tp847
a(g77
g138
tp848
a(g75
VOW
p849
tp850
a(g10
Ntp851
a(g10
g11
tp852
a(g5
g6
tp853
a(g37
Ntp854
a(g77
VER
p855
tp856
a(g115
g486
tp857
aa(lp858
(g115
g486
tp859
a(g77
g138
tp860
a(g75
g849
tp861
a(g10
g11
tp862
a(g10
Ntp863
a(g5
g6
tp864
a(g37
Ntp865
a(g77
g855
tp866
a(g115
g486
tp867
aa(lp868
(g73
VHH
p869
tp870
a(g2
VAE
p871
tp872
a(g18
Ntp873
a(g18
g19
tp874
a(g28
VIH
p875
tp876
a(g10
g11
tp877
a(g37
Ntp878
a(g559
VIY
p879
tp880
aa(lp881
(g73
g869
tp882
a(g2
g871
tp883
a(g18
g19
tp884
a(g18
Ntp885
a(g28
g875
tp886
a(g10
g11
tp887
a(g37
Ntp888
a(g559
g879
tp889
aa(lp890
(g73
VHH
p891
tp892
a(g2
VEY
p893
tp894
a(g18
g19
tp895
a(g34
g35
tp896
a(g37
Ntp897
a(g48
g49
tp898
a(g2
VAH
p899
tp900
a(g69
g126
tp901
aa(lp902
(g73
VHH
p903
tp904
a(g2
VAA
p905
tp906
a(g77
g138
tp907
a(g34
g35
tp908
a(g115
g486
tp909
a(g77
g138
tp910
a(g75
VOW
p911
tp912
a(g208
g209
tp913
a(g37
Ntp914
aa(lp915
(g73
VHH
p916
tp917
a(g37
VEH
p918
tp919
a(g13
Ntp920
a(g13
g14
tp921
a(g75
VOW
p922
tp923
aa(lp924
(g73
g916
tp925
a(g37
g918
tp926
a(g13
g14
tp927
a(g13
Ntp928
a(g75
g922
tp929
aa(lp930
(g73
VHH
p931
tp932
a(g37
Ntp933
a(g77
VER
p934
tp935
a(g34
g35
tp936
a(g37
VAH
p937
tp938
a(g69
g126
tp939
a(g10
g11
tp940
a(g34
g35
tp941
a(g37
Ntp942
a(g28
VAY
p943
tp944
a(g69
g126
tp945
aa(lp946
(g73
VHH
p947
tp948
a(g75
VOW
p949
tp950
a(g115
VJH
p951
tp952
a(g37
Ntp953
aa(lp954
(g73
VHH
p955
tp956
a(g75
VAA
p957
tp958
a(g18
Ntp959
a(g18
g19
tp960
a(g10
g11
tp961
a(g34
g35
tp962
a(g37
Ntp963
a(g28
VIY
p964
tp965
a(g69
g126
tp966
aa(lp967
(g73
g955
tp968
a(g75
g957
tp969
a(g18
g19
tp970
a(g18
Ntp971
a(g10
g11
tp972
a(g34
g35
tp973
a(g37
Ntp974
a(g28
g964
tp975
a(g69
g126
tp976
aa(lp977
(g73
VHH
p978
tp979
a(g559
VAY
p980
tp981
a(g48
g49
tp982
a(g28
VIY
p983
tp984
a(g37
Ntp985
aa(lp986
(g28
VIH
p987
tp988
a(g25
g26
tp989
a(g2
VAH
p990
tp991
a(g18
g19
tp992
a(g28
VAY
p993
tp994
a(g69
g126
tp995
a(g37
Ntp996
aa(lp997
(g28
VIH
p998
tp999
a(g69
g126
tp1000
a(g10
g11
tp1001
a(g2
VAE
p1002
tp1003
a(g69
g126
tp1004
a(g28
VIH
p1005
tp1006
a(g34
g35
tp1007
a(g559
VIY
p1008
tp1009
aa(lp1010
(g28
VIH
p1011
tp1012
a(g69
g126
tp1013
a(g34
g35
tp1014
a(g75
Ntp1015
a(g56
VUH
p1016
tp1017
a(g77
g138
tp1018
a(g28
VIH
p1019
tp1020
a(g10
g11
tp1021
a(g34
g35
tp1022
aa(lp1023
(g28
VAY
p1024
tp1025
a(g208
g209
tp1026
a(g2
VAH
p1027
tp1028
a(g69
g126
tp1029
aa(lp1030
(Vj
p1031
VJH
p1032
tp1033
a(g37
VEH
p1034
tp1035
a(g77
g138
tp1036
a(g28
VIY
p1037
tp1038
aa(lp1039
(g43
g14
tp1040
a(g37
VEH
p1041
tp1042
a(g10
g11
tp1043
a(g34
Ntp1044
a(g37
VAH
p1045
tp1046
a(g69
g126
tp1047
a(g5
g6
tp1048
a(g2
VAW
p1049
tp1050
a(g56
Ntp1051
a(g48
g49
tp1052
aa(lp1053
(g43
g14
tp1054
a(g75
VAO
p1055
tp1056
a(g69
VNG
p1057
tp1058
a(g115
g486
tp1059
aa(lp1060
(g43
g14
tp1061
a(g77
g138
tp1062
a(g37
VIY
p1063
tp1064
a(g48
g49
tp1065
a(g37
Ntp1066
a(g77
VER
p1067
tp1068
aa(lp1069
(g18
g19
tp1070
a(g37
Ntp1071
a(g2
VIY
p1072
tp1073
a(g69
g126
tp1074
a(g37
Ntp1075
a(g77
VER
p1076
tp1077
aa(lp1078
(g18
g19
tp1079
a(g37
Ntp1080
a(g37
VIY
p1081
tp1082
a(g69
g126
tp1083
a(g2
VAH
p1084
tp1085
aa(lp1086
(g18
g19
tp1087
a(g37
g1081
tp1088
a(g37
Ntp1089
a(g69
g126
tp1090
a(g2
g1084
tp1091
aa(lp1092
(g18
g19
tp1093
a(g37
Ntp1094
a(g77
VER
p1095
tp1096
a(g48
g49
tp1097
a(g2
VAH
p1098
tp1099
aa(lp1100
(g18
g19
tp1101
a(g75
VOW
p1102
tp1103
a(g13
g14
tp1104
a(g75
VOW
p1105
tp1106
a(g13
g14
tp1107
a(g75
VOW
p1108
tp1109
aa(lp1110
(g48
g49
tp1111
a(NVAH
p1112
tp1113
a(g13
g14
tp1114
a(g2
VAE
p1115
tp1116
a(g69
g126
tp1117
a(g25
g26
tp1118
a(g77
g138
tp1119
a(g37
Ntp1120
a(g165
VUW
p1121
tp1122
a(g10
g80
tp1123
aa(lp1124
(g48
g49
tp1125
a(NVAH
p1126
tp1127
a(g13
Ntp1128
a(g13
g14
tp1129
a(g75
VAA
p1130
tp1131
a(g69
g126
tp1132
a(g2
VAH
p1133
tp1134
a(g73
VHH
p1135
tp1136
a(g2
VAA
p1137
tp1138
aa(lp1139
(g48
g49
tp1140
a(g13
Ntp1141
a(Ng1126
tp1142
a(g13
g14
tp1143
a(g75
g1130
tp1144
a(g69
g126
tp1145
a(g2
g1133
tp1146
a(g73
g1135
tp1147
a(g2
g1137
tp1148
aa(lp1149
(g48
g49
tp1150
a(Ng1126
tp1151
a(g13
g14
tp1152
a(g13
Ntp1153
a(g75
g1130
tp1154
a(g69
g126
tp1155
a(g2
g1133
tp1156
a(g73
g1135
tp1157
a(g2
g1137
tp1158
aa(lp1159
(g48
g49
tp1160
a(NVAH
p1161
tp1162
a(g13
Ntp1163
a(Vq
p1164
g14
tp1165
a(g56
g439
tp1166
a(g37
Ntp1167
a(g37
VIY
p1168
tp1169
a(g69
g126
tp1170
a(g37
Ntp1171
a(g559
VIY
p1172
tp1173
aa(lp1174
(g48
g49
tp1175
a(g13
Ntp1176
a(Ng1161
tp1177
a(g1164
g14
tp1178
a(g56
g439
tp1179
a(g37
Ntp1180
a(g37
g1168
tp1181
a(g69
g126
tp1182
a(g37
Ntp1183
a(g559
g1172
tp1184
aa(lp1185
(g48
g49
tp1186
a(Ng1161
tp1187
a(g13
Ntp1188
a(g1164
g14
tp1189
a(g56
g439
tp1190
a(g37
g1168
tp1191
a(g37
Ntp1192
a(g69
g126
tp1193
a(g37
Ntp1194
a(g559
g1172
tp1195
aa(lp1196
(g48
g49
tp1197
a(g13
Ntp1198
a(Ng1161
tp1199
a(g1164
g14
tp1200
a(g56
g439
tp1201
a(g37
g1168
tp1202
a(g37
Ntp1203
a(g69
g126
tp1204
a(g37
Ntp1205
a(g559
g1172
tp1206
aa(lp1207
(g48
g49
tp1208
a(g37
VEH
p1209
tp1210
a(g13
Ntp1211
a(g43
g14
tp1212
aa(lp1213
(g48
g49
tp1214
a(g37
Ntp1215
a(g37
VIY
p1216
tp1217
a(g10
g11
tp1218
a(g34
g35
tp1219
a(g37
Ntp1220
a(g77
VER
p1221
tp1222
aa(lp1223
(g48
g49
tp1224
a(g37
g1216
tp1225
a(g37
Ntp1226
a(g10
g11
tp1227
a(g34
g35
tp1228
a(g37
Ntp1229
a(g77
g1221
tp1230
aa(lp1231
(g48
g49
tp1232
a(g37
VEH
p1233
tp1234
a(g77
g138
tp1235
a(g28
VIH
p1236
tp1237
a(g13
g14
tp1238
a(g2
VAH
p1239
tp1240
aa(lp1241
(g48
g49
tp1242
a(g75
VAO
p1243
tp1244
a(g77
g138
tp1245
a(g115
g486
tp1246
a(g37
VIH
p1247
tp1248
a(g69
g126
tp1249
a(g10
g11
tp1250
a(g34
g35
tp1251
a(g37
Ntp1252
a(g77
VER
p1253
tp1254
a(g69
g126
tp1255
aa(lp1256
(g69
g126
tp1257
a(g2
VAA
p1258
tp1259
a(g77
g138
tp1260
a(g13
g11
tp1261
a(g28
VIH
p1262
tp1263
a(g10
Ntp1264
a(g10
g11
tp1265
a(g28
VIH
p1266
tp1267
a(g10
g11
tp1268
a(g34
g35
tp1269
a(g28
VIH
p1270
tp1271
a(g13
g14
tp1272
aa(lp1273
(g69
g126
tp1274
a(g2
g1258
tp1275
a(g77
g138
tp1276
a(g13
g11
tp1277
a(g28
g1262
tp1278
a(g10
g11
tp1279
a(g10
Ntp1280
a(g28
g1266
tp1281
a(g10
g11
tp1282
a(g34
g35
tp1283
a(g28
g1270
tp1284
a(g13
g14
tp1285
aa(lp1286
(g69
g126
tp1287
a(g28
VIH
p1288
tp1289
a(g13
g14
tp1290
a(g73
Ntp1291
a(g75
Ntp1292
a(g18
g19
tp1293
a(g2
VAH
p1294
tp1295
a(g10
g11
tp1296
a(g283
Ntp1297
aa(lp1298
(g69
g126
tp1299
a(g75
Ntp1300
a(g559
VOY
p1301
tp1302
a(g75
VOW
p1303
tp1304
a(g18
g19
tp1305
a(g2
VAH
p1306
tp1307
aa(lp1308
(g69
g126
tp1309
a(g56
VUH
p1310
tp1311
a(g77
g138
tp1312
a(g48
g49
tp1313
a(g28
VIY
p1314
tp1315
aa(lp1316
(g75
VAO
p1317
tp1318
a(g73
Ntp1319
a(g77
g138
tp1320
aa(lp1321
(g51
g52
tp1322
a(g2
VAA
p1323
tp1324
a(g18
g19
tp1325
a(g48
g49
tp1326
a(g10
g80
tp1327
aa(lp1328
(g51
g52
tp1329
a(g2
VAA
p1330
tp1331
a(g69
g126
tp1332
a(g28
VIY
p1333
tp1334
a(g2
VAA
p1335
tp1336
a(g115
g486
tp1337
a(g56
Ntp1338
a(g2
VAH
p1339
tp1340
aa(lp1341
(g51
g52
tp1342
a(g37
VEH
p1343
tp1344
a(g34
g35
tp1345
a(Ng11
tp1346
a(g188
Ntp1347
a(g28
VIH
p1348
tp1349
a(g69
VNG
p1350
tp1351
a(g115
Ntp1352
a(g37
Ntp1353
a(g77
VER
p1354
tp1355
aa(lp1356
(g51
g52
tp1357
a(g37
g1343
tp1358
a(g34
g35
tp1359
a(g188
Ntp1360
a(Ng11
tp1361
a(g28
g1348
tp1362
a(g69
g1350
tp1363
a(g115
Ntp1364
a(g37
Ntp1365
a(g77
g1354
tp1366
aa(lp1367
(g51
g52
tp1368
a(g18
g19
tp1369
a(g2
VAE
p1370
tp1371
a(g69
VNG
p1372
tp1373
a(g43
g14
tp1374
a(g28
VIH
p1375
tp1376
a(g69
VNG
p1377
tp1378
a(g115
Ntp1379
aa(lp1380
(g51
g52
tp1381
a(g18
g19
tp1382
a(g56
VAH
p1383
tp1384
a(g69
g126
tp1385
a(g115
VJH
p1386
tp1387
a(g37
VIH
p1388
tp1389
a(g10
g80
tp1390
aa(lp1391
(g51
g52
tp1392
a(g75
VOW
p1393
tp1394
a(g18
g19
tp1395
a(g28
VIY
p1396
tp1397
a(g75
VOW
p1398
tp1399
aa(lp1400
(g51
g52
tp1401
a(g75
VAA
p1402
tp1403
a(g18
g19
tp1404
a(g559
VIY
p1405
tp1406
aa(lp1407
(g51
g52
tp1408
a(g77
g138
tp1409
a(g37
VAH
p1410
tp1411
a(g10
g11
tp1412
a(g13
g14
tp1413
a(g77
g138
tp1414
a(g28
VIH
p1415
tp1416
a(g51
g52
tp1417
a(g34
VSH
p1418
tp1419
a(g28
Ntp1420
a(g75
VAH
p1421
tp1422
a(g69
g126
tp1423
aa(lp1424
(g51
g52
tp1425
a(g77
g138
tp1426
a(g37
VEH
p1427
tp1428
a(g208
g209
tp1429
a(g2
VAH
p1430
tp1431
a(g18
g19
tp1432
a(g37
VAH
p1433
tp1434
a(g69
g126
tp1435
a(g13
g11
tp1436
a(g37
Ntp1437
aa(lp1438
(g51
g52
tp1439
a(g77
g138
tp1440
a(g28
VAY
p1441
tp1442
a(g13
g11
tp1443
a(g37
VIH
p1444
tp1445
a(g10
g80
tp1446
aa(lp1447
(g51
g52
tp1448
a(g77
g138
tp1449
a(g75
VAH
p1450
tp1451
a(g10
g11
tp1452
a(g51
g52
tp1453
a(g37
VEH
p1454
tp1455
a(g13
g14
tp1456
a(g34
g35
tp1457
a(g56
VAH
p1458
tp1459
a(g10
g11
tp1460
aa(lp1461
(g1164
g14
tp1462
a(g56
g439
tp1463
a(g2
VAE
p1464
tp1465
a(g13
Ntp1466
a(g43
g14
tp1467
aa(lp1468
(g1164
g14
tp1469
a(g56
g439
tp1470
a(g2
VAA
p1471
tp1472
a(g69
g126
tp1473
a(g34
g35
tp1474
a(g56
VAH
p1475
tp1476
a(g48
g49
tp1477
aa(lp1478
(g77
g138
tp1479
a(g2
VAE
p1480
tp1481
a(g48
Ntp1482
a(g48
g49
tp1483
aa(lp1484
(g77
g138
tp1485
a(g37
VIY
p1486
tp1487
a(g25
g26
tp1488
a(g28
VIH
p1489
tp1490
a(g10
g11
tp1491
a(g34
g35
tp1492
a(g77
g138
tp1493
a(g28
VIH
p1494
tp1495
a(g5
g6
tp1496
a(Ng54
tp1497
a(g56
VAH
p1498
tp1499
a(g34
g35
tp1500
a(g28
VIH
p1501
tp1502
a(g69
VNG
p1503
tp1504
a(g115
Ntp1505
aa(lp1506
(g77
g138
tp1507
a(g37
VEH
p1508
tp1509
a(g10
g11
tp1510
a(g34
g35
tp1511
a(g28
VIH
p1512
tp1513
a(g69
VNG
p1514
tp1515
a(g115
Ntp1516
aa(lp1517
(g77
g138
tp1518
a(g73
Ntp1519
a(g28
VAY
p1520
tp1521
a(g188
g80
tp1522
a(g75
VOY
p1523
tp1524
a(g28
Ntp1525
a(g25
g26
tp1526
aa(lp1527
(g77
g138
tp1528
a(g28
VIH
p1529
tp1530
a(g13
Ntp1531
a(g43
g14
tp1532
a(g37
Ntp1533
a(g559
VIY
p1534
tp1535
aa(lp1536
(g77
g138
tp1537
a(g75
VOW
p1538
tp1539
a(g165
Ntp1540
a(g69
g126
tp1541
a(g34
g35
tp1542
a(g77
g138
tp1543
a(g37
Ntp1544
a(g37
VIY
p1545
tp1546
a(g283
Ntp1547
a(g10
g80
tp1548
aa(lp1549
(g77
g138
tp1550
a(g75
g1538
tp1551
a(g165
Ntp1552
a(g69
g126
tp1553
a(g34
g35
tp1554
a(g77
g138
tp1555
a(g37
g1545
tp1556
a(g37
Ntp1557
a(g283
Ntp1558
a(g10
g80
tp1559
aa(lp1560
(g10
g11
tp1561
a(g2
VAE
p1562
tp1563
a(g261
g262
tp1564
a(g77
g138
tp1565
a(g2
VAH
p1566
tp1567
a(g69
g126
tp1568
aa(lp1569
(g10
g11
tp1570
a(g2
VAE
p1571
tp1572
a(g18
g19
tp1573
a(g2
VAH
p1574
tp1575
a(g165
g439
tp1576
a(g2
VAA
p1577
tp1578
a(g73
Ntp1579
aa(lp1580
(g10
g11
tp1581
a(g2
VAE
p1582
tp1583
a(g69
g126
tp1584
a(g28
VIH
p1585
tp1586
a(g34
g35
tp1587
a(g28
VAY
p1588
tp1589
a(g188
g80
tp1590
a(g37
Ntp1591
a(g25
g26
tp1592
aa(lp1593
(g10
g11
tp1594
a(g13
Ntp1595
a(g37
Ntp1596
a(g77
VER
p1597
tp1598
a(g188
g80
tp1599
a(g56
VUW
p1600
tp1601
a(g10
g11
tp1602
a(g43
g14
tp1603
a(g559
VIY
p1604
tp1605
aa(lp1606
(g10
g11
tp1607
a(g13
g14
tp1608
a(g56
VAH
p1609
tp1610
a(g18
Ntp1611
a(g18
g19
tp1612
a(g37
Ntp1613
a(g559
VIY
p1614
tp1615
a(g283
Ntp1616
a(g10
g80
tp1617
aa(lp1618
(g10
g11
tp1619
a(g13
g14
tp1620
a(g56
g1609
tp1621
a(g18
g19
tp1622
a(g18
Ntp1623
a(g37
Ntp1624
a(g559
g1614
tp1625
a(g283
Ntp1626
a(g10
g80
tp1627
aa(lp1628
(g10
g11
tp1629
a(g13
g14
tp1630
a(g56
VAH
p1631
tp1632
a(g34
Ntp1633
a(g34
g35
tp1634
a(g18
g19
tp1635
a(g28
VIH
p1636
tp1637
a(g69
VNG
p1638
tp1639
a(g115
Ntp1640
aa(lp1641
(g10
g11
tp1642
a(g37
VEH
p1643
tp1644
a(g10
Ntp1645
a(g10
g11
tp1646
a(g2
VAH
p1647
tp1648
aa(lp1649
(g10
g11
tp1650
a(g37
g1643
tp1651
a(g10
g11
tp1652
a(g10
Ntp1653
a(g2
g1647
tp1654
aa(lp1655
(g10
VSH
p1656
tp1657
a(g73
Ntp1658
a(g37
Ntp1659
a(g77
VER
p1660
tp1661
a(g18
g19
tp1662
a(g75
VAA
p1663
tp1664
a(g13
Ntp1665
a(g43
g14
tp1666
aa(lp1667
(g10
g11
tp1668
a(g28
VIH
p1669
tp1670
a(g13
VCH
p1671
tp1672
a(g73
Ntp1673
a(g56
g439
tp1674
a(g2
VAA
p1675
tp1676
a(g69
g126
tp1677
aa(lp1678
(g10
g11
tp1679
a(g48
g49
tp1680
a(g75
VOW
p1681
tp1682
a(g18
g19
tp1683
a(g2
VAH
p1684
tp1685
a(g43
g14
tp1686
aa(lp1687
(g10
g11
tp1688
a(g34
g35
tp1689
a(g2
VAA
p1690
tp1691
a(g18
g19
tp1692
a(g28
VIH
p1693
tp1694
a(g69
g126
tp1695
a(g28
VIH
p1696
tp1697
a(g10
g11
tp1698
a(g34
g35
tp1699
a(g28
VIH
p1700
tp1701
a(g13
g14
tp1702
aa(lp1703
(g10
g11
tp1704
a(g34
g35
tp1705
a(g37
VIY
p1706
tp1707
a(g208
g209
tp1708
a(g37
Ntp1709
a(g283
Ntp1710
a(g10
g80
tp1711
aa(lp1712
(g10
g11
tp1713
a(g34
g35
tp1714
a(g28
VIH
p1715
tp1716
a(g18
Ntp1717
a(g18
g19
tp1718
a(g37
Ntp1719
a(g559
VIY
p1720
tp1721
aa(lp1722
(g10
g11
tp1723
a(g34
g35
tp1724
a(g28
g1715
tp1725
a(g18
g19
tp1726
a(g18
Ntp1727
a(g37
Ntp1728
a(g559
g1720
tp1729
aa(lp1730
(g10
g11
tp1731
a(g34
g35
tp1732
a(g56
VUW
p1733
tp1734
a(g25
g26
tp1735
a(g37
VAH
p1736
tp1737
a(g5
g6
tp1738
a(g2
VEY
p1739
tp1740
a(g43
g14
tp1741
a(g37
Ntp1742
a(g77
VER
p1743
tp1744
aa(lp1745
(g10
g11
tp1746
a(NVIH
p1747
tp1748
a(g559
Ntp1749
a(g48
g49
tp1750
a(g51
g52
tp1751
a(g2
VAH
p1752
tp1753
a(g34
VTH
p1754
tp1755
a(g73
Ntp1756
a(g559
VIY
p1757
tp1758
aa(lp1759
(g10
g11
tp1760
a(g559
Ntp1761
a(Ng1747
tp1762
a(g48
g49
tp1763
a(g51
g52
tp1764
a(g2
g1752
tp1765
a(g34
g1754
tp1766
a(g73
Ntp1767
a(g559
g1757
tp1768
aa(lp1769
(g34
g35
tp1770
a(g37
Ntp1771
a(g77
VER
p1772
tp1773
a(g73
VHH
p1774
tp1775
a(Ng54
tp1776
a(g56
VUW
p1777
tp1778
a(g69
g126
tp1779
a(g37
Ntp1780
aa(lp1781
(g34
VTH
p1782
tp1783
a(g73
Ntp1784
a(g37
Ntp1785
a(g28
VAY
p1786
tp1787
a(g10
g11
tp1788
a(g37
VAH
p1789
tp1790
a(g69
g126
tp1791
aa(lp1792
(g34
g35
tp1793
a(g28
VIH
p1794
tp1795
a(g69
Ntp1796
a(g69
g126
tp1797
a(g37
VAH
p1798
tp1799
a(g18
Ntp1800
a(g18
g19
tp1801
aa(lp1802
(g34
g35
tp1803
a(g28
g1794
tp1804
a(g69
g126
tp1805
a(g69
Ntp1806
a(g37
g1798
tp1807
a(g18
Ntp1808
a(g18
g19
tp1809
aa(lp1810
(g34
g35
tp1811
a(g28
g1794
tp1812
a(g69
Ntp1813
a(g69
g126
tp1814
a(g37
g1798
tp1815
a(g18
g19
tp1816
a(g18
Ntp1817
aa(lp1818
(g34
g35
tp1819
a(g28
g1794
tp1820
a(g69
g126
tp1821
a(g69
Ntp1822
a(g37
g1798
tp1823
a(g18
g19
tp1824
a(g18
Ntp1825
aa(lp1826
(g34
g35
tp1827
a(g75
VAA
p1828
tp1829
a(g34
Ntp1830
a(g34
g35
tp1831
a(g37
Ntp1832
a(g77
VER
p1833
tp1834
aa(lp1835
(g56
VAH
p1836
tp1837
a(g69
g126
tp1838
a(g2
VAH
p1839
tp1840
a(g25
Ntp1841
a(g25
g26
tp1842
a(g77
g138
tp1843
a(g37
VEH
p1844
tp1845
a(g10
Ntp1846
a(g10
g11
tp1847
a(g37
Ntp1848
a(g25
g35
tp1849
aa(lp1850
(g56
g1836
tp1851
a(g69
g126
tp1852
a(g2
g1839
tp1853
a(g25
g26
tp1854
a(g25
Ntp1855
a(g77
g138
tp1856
a(g37
g1844
tp1857
a(g10
Ntp1858
a(g10
g11
tp1859
a(g37
Ntp1860
a(g25
g35
tp1861
aa(lp1862
(g56
g1836
tp1863
a(g69
g126
tp1864
a(g2
g1839
tp1865
a(g25
Ntp1866
a(g25
g26
tp1867
a(g77
g138
tp1868
a(g37
g1844
tp1869
a(g10
g11
tp1870
a(g10
Ntp1871
a(g37
Ntp1872
a(g25
g35
tp1873
aa(lp1874
(g56
g1836
tp1875
a(g69
g126
tp1876
a(g2
g1839
tp1877
a(g25
g26
tp1878
a(g25
Ntp1879
a(g77
g138
tp1880
a(g37
g1844
tp1881
a(g10
g11
tp1882
a(g10
Ntp1883
a(g37
Ntp1884
a(g25
g35
tp1885
aa(lp1886
(g56
VAH
p1887
tp1888
a(g69
g126
tp1889
a(g13
g14
tp1890
a(g75
VOW
p1891
tp1892
a(g75
VAA
p1893
tp1894
a(g51
g52
tp1895
a(g37
Ntp1896
a(g77
VER
p1897
tp1898
a(g2
VAH
p1899
tp1900
a(g34
g35
tp1901
a(g28
VIH
p1902
tp1903
a(g208
g209
tp1904
a(g37
Ntp1905
aa(lp1906
(Ng54
tp1907
a(g56
VUW
p1908
tp1909
a(g69
g126
tp1910
a(g75
VOW
p1911
tp1912
a(g10
g11
tp1913
a(g75
VAH
p1914
tp1915
a(g48
g49
tp1916
aa(lp1917
(g208
g209
tp1918
a(g28
VAY
p1919
tp1920
a(g75
Ntp1921
a(g18
g19
tp1922
a(g37
VAH
p1923
tp1924
a(g69
g126
tp1925
a(g34
g35
tp1926
aa(lp1927
(g165
g439
tp1928
a(g73
Ntp1929
a(g37
Ntp1930
a(g165
VUW
p1931
tp1932
aa(lp1933
(g165
g439
tp1934
a(g73
Ntp1935
a(g28
VIH
p1936
tp1937
a(g34
Ntp1938
a(g34
g35
tp1939
a(g75
VAH
p1940
tp1941
a(g69
g126
tp1942
aa(lp1943
(NVIH
p1944
tp1945
a(g559
Ntp1946
a(g208
g209
tp1947
a(g75
VAA
p1948
tp1949
a(g69
Ntp1950
a(g69
g126
tp1951
a(g37
Ntp1952
a(g283
Ntp1953
a(g10
g80
tp1954
aa(lp1955
(g559
Ntp1956
a(Ng1944
tp1957
a(g208
g209
tp1958
a(g75
g1948
tp1959
a(g69
Ntp1960
a(g69
g126
tp1961
a(g37
Ntp1962
a(g283
Ntp1963
a(g10
g80
tp1964
aa(lp1965
(Ng1944
tp1966
a(g559
Ntp1967
a(g208
g209
tp1968
a(g75
g1948
tp1969
a(g69
g126
tp1970
a(g69
Ntp1971
a(g37
Ntp1972
a(g283
Ntp1973
a(g10
g80
tp1974
aa(lp1975
(g559
Ntp1976
a(Ng1944
tp1977
a(g208
g209
tp1978
a(g75
g1948
tp1979
a(g69
g126
tp1980
a(g69
Ntp1981
a(g37
Ntp1982
a(g283
Ntp1983
a(g10
g80
tp1984
aa.